target datalayout = "e-m:e-p270:32:32-p271:32:32-p272:64:64-i64:64-i128:128-f80:128-n8:16:32:64-S128"
target triple = "x86_64-pc-linux-gnu"

%struct.redisServer = type { i32, i64, ptr, ptr, ptr, i32, i32, i32, i32, i32, ptr, ptr, ptr, ptr, ptr, i32, i32, i32, i32, i64, i32, i32, i32, i32, ptr, i32, i32, [41 x i8], i32, i64, i32, i32, i32, ptr, ptr, i32, i32, i64, ptr, ptr, ptr, ptr, [2 x i32], i32, i32, i32, i32, i32, i32, [16 x ptr], i32, ptr, ptr, i32, [8 x %struct.connListener], i32, %struct.connListener, ptr, ptr, ptr, ptr, ptr, ptr, ptr, ptr, ptr, ptr, i32, ptr, i32, ptr, [3 x %struct.pause_event], [256 x i8], ptr, i64, i32, i32, [128 x i32], i32, i32, i64, i32, i32, i32, i32, i32, i64, i64, i64, i64, i64, i64, i64, i64, i64, i64, double, i64, i64, i64, i64, i64, i64, i64, i64, i64, i64, i64, i64, i64, i64, i64, i64, i64, i64, i64, i64, i64, double, i64, i64, i64, i64, i64, ptr, i64, i64, i64, %struct.malloc_stats, i64, i64, i64, i64, i64, i64, i64, i64, i64, i64, i64, i64, double, [4 x i64], i64, i64, i64, i64, [128 x i64], [128 x i64], i64, i64, [7 x %struct.anon], i64, i64, i64, i64, i64, i64, [4 x %struct.durationStats], i32, i32, i32, i32, i32, i32, i32, i32, i32, i32, i32, i32, i64, i32, i32, i32, i32, i64, i64, i32, i32, i32, i32, i32, ptr, [3 x %struct.clientBufferLimitsConfig], i32, i32, i32, ptr, i32, i32, i32, i32, i32, i32, ptr, ptr, i32, i32, i64, i64, i64, i64, i64, i32, i32, ptr, i32, i32, i64, i64, i64, i64, i64, i32, i32, i64, i32, i32, i32, i32, i32, i32, i32, i32, ptr, i32, i64, i64, i64, i64, i32, ptr, i32, ptr, i32, i32, i32, i64, i64, i64, i64, i32, i32, i32, i32, i32, i32, ptr, i32, i32, ptr, i32, i32, i32, [2 x i32], i32, %struct.redisOpArray, i32, ptr, i32, ptr, i32, i32, i32, i32, i32, i32, i32, [41 x i8], [41 x i8], i64, i64, i64, i64, i32, i32, ptr, i64, i64, %struct.replDataBuf, i64, i64, i32, i32, i32, i32, i32, i32, i32, i32, i32, i64, ptr, i64, ptr, ptr, ptr, i32, i32, ptr, ptr, i32, i32, i32, i64, i64, i64, i64, ptr, ptr, i32, ptr, i64, i32, i32, i32, i64, i32, i32, i32, i32, ptr, i32, i32, [41 x i8], i64, i32, ptr, i32, i32, i64, i64, i32, i32, i32, i32, i32, i64, [3 x i32], i32, i32, i32, [10 x i32], ptr, ptr, i32, i64, ptr, ptr, i32, i32, i32, i32, i64, i64, i64, i64, i64, i64, i64, i64, i64, i64, i32, i32, i64, i64, i32, i64, i64, i64, i64, i64, ptr, ptr, i32, ptr, i32, i32, i32, i32, i64, i64, ptr, ptr, i32, i32, i32, i32, i32, ptr, ptr, ptr, i32, i32, i32, i32, i32, i32, i32, i64, i32, i32, i64, i32, i32, i32, i32, i32, i32, i32, i64, ptr, ptr, i64, ptr, i32, %struct.aclInfo, i32, i64, i32, i32, i32, %struct.redisTLSContextConfig, ptr, ptr, ptr, ptr, ptr, i64, i32, ptr, i32, i32, i32, i64, i32, ptr }
%struct.connListener = type { [16 x i32], i32, ptr, i32, i32, ptr, ptr }
%struct.pause_event = type { i32, i64 }
%struct.malloc_stats = type { i64, i64, i64, i64, i64, i64, i64, i64, i64, i64, i64 }
%struct.anon = type { i64, i64, [16 x i64], i32 }
%struct.durationStats = type { i64, i64, i64 }
%struct.clientBufferLimitsConfig = type { i64, i64, i64 }
%struct.redisOpArray = type { ptr, i32, i32 }
%struct.replDataBuf = type { ptr, i64, i64, i64, i64 }
%struct.aclInfo = type { i64, i64, i64, i64 }
%struct.redisTLSContextConfig = type { ptr, ptr, ptr, ptr, ptr, ptr, ptr, ptr, ptr, ptr, ptr, ptr, i32, i32, i32, i32 }
%struct.raxIterator = type { i32, ptr, ptr, ptr, i64, i64, [128 x i8], ptr, %struct.raxStack, ptr }
%struct.raxStack = type { ptr, i64, i64, [32 x ptr], i32 }

@TrackingTable = dso_local global ptr null, align 8
@.str = private unnamed_addr constant [2 x i8] c"^\00", align 1
@server = external global %struct.redisServer, align 8
@trackingLimitUsedSlots.timeout_counter = internal global i32 0, align 4

; Function Attrs: nounwind uwtable
define dso_local void @trackingLimitUsedSlots() #0 {
  %1 = alloca i64, align 8
  %2 = alloca i32, align 4
  %3 = alloca i32, align 4
  %4 = alloca %struct.raxIterator, align 8
  %5 = alloca ptr, align 8
  %6 = load ptr, ptr @TrackingTable, align 8, !tbaa !31
  %7 = icmp eq ptr %6, null
  br i1 %7, label %8, label %9

8:                                                ; preds = %0
  br label %59

9:                                                ; preds = %0
  %10 = load i64, ptr getelementptr inbounds nuw (%struct.redisServer, ptr @server, i32 0, i32 347), align 8, !tbaa !117
  %11 = icmp eq i64 %10, 0
  br i1 %11, label %12, label %13

12:                                               ; preds = %9
  br label %59

13:                                               ; preds = %9
  call void @llvm.lifetime.start.p0(i64 8, ptr %1) #10
  %14 = load i64, ptr getelementptr inbounds nuw (%struct.redisServer, ptr @server, i32 0, i32 347), align 8, !tbaa !117
  store i64 %14, ptr %1, align 8, !tbaa !67
  %15 = load ptr, ptr @TrackingTable, align 8, !tbaa !31
  %16 = call i64 @raxSize(ptr noundef %15)
  %17 = load i64, ptr %1, align 8, !tbaa !67
  %18 = icmp ule i64 %16, %17
  br i1 %18, label %19, label %20

19:                                               ; preds = %13
  store i32 0, ptr @trackingLimitUsedSlots.timeout_counter, align 4, !tbaa !37
  store i32 1, ptr %2, align 4
  br label %57

20:                                               ; preds = %13
  call void @llvm.lifetime.start.p0(i64 4, ptr %3) #10
  %21 = load i32, ptr @trackingLimitUsedSlots.timeout_counter, align 4, !tbaa !37
  %22 = add i32 %21, 1
  %23 = mul i32 100, %22
  store i32 %23, ptr %3, align 4, !tbaa !37
  call void @llvm.lifetime.start.p0(i64 480, ptr %4) #10
  %24 = load ptr, ptr @TrackingTable, align 8, !tbaa !31
  call void @raxStart(ptr noundef %4, ptr noundef %24)
  br label %25

25:                                               ; preds = %52, %20
  %26 = load i32, ptr %3, align 4, !tbaa !37
  %27 = icmp sgt i32 %26, 0
  br i1 %27, label %28, label %53

28:                                               ; preds = %25
  %29 = load i32, ptr %3, align 4, !tbaa !37
  %30 = add nsw i32 %29, -1
  store i32 %30, ptr %3, align 4, !tbaa !37
  %31 = call i32 @raxSeek(ptr noundef %4, ptr noundef @.str, ptr noundef null, i64 noundef 0)
  %32 = call i32 @raxRandomWalk(ptr noundef %4, i64 noundef 0)
  %33 = call i32 @raxEOF(ptr noundef %4)
  %34 = icmp ne i32 %33, 0
  br i1 %34, label %35, label %36

35:                                               ; preds = %28
  br label %53

36:                                               ; preds = %28
  call void @llvm.lifetime.start.p0(i64 8, ptr %5) #10
  %37 = getelementptr inbounds nuw %struct.raxIterator, ptr %4, i32 0, i32 2
  %38 = load ptr, ptr %37, align 8, !tbaa !32
  %39 = getelementptr inbounds nuw %struct.raxIterator, ptr %4, i32 0, i32 4
  %40 = load i64, ptr %39, align 8, !tbaa !36
  %41 = call ptr @createStringObject(ptr noundef %38, i64 noundef %40)
  store ptr %41, ptr %5, align 8, !tbaa !68
  %42 = load ptr, ptr %5, align 8, !tbaa !68
  call void @trackingInvalidateKey(ptr noundef null, ptr noundef %42, i32 noundef 0)
  %43 = load ptr, ptr %5, align 8, !tbaa !68
  call void @decrRefCount(ptr noundef %43)
  %44 = load ptr, ptr @TrackingTable, align 8, !tbaa !31
  %45 = call i64 @raxSize(ptr noundef %44)
  %46 = load i64, ptr %1, align 8, !tbaa !67
  %47 = icmp ule i64 %45, %46
  br i1 %47, label %48, label %49

48:                                               ; preds = %36
  store i32 0, ptr @trackingLimitUsedSlots.timeout_counter, align 4, !tbaa !37
  call void @raxStop(ptr noundef %4)
  store i32 1, ptr %2, align 4
  br label %50

49:                                               ; preds = %36
  store i32 0, ptr %2, align 4
  br label %50

50:                                               ; preds = %49, %48
  call void @llvm.lifetime.end.p0(i64 8, ptr %5) #10
  %51 = load i32, ptr %2, align 4
  switch i32 %51, label %56 [
    i32 0, label %52
  ]

52:                                               ; preds = %50
  br label %25, !llvm.loop !118

53:                                               ; preds = %35, %25
  call void @raxStop(ptr noundef %4)
  %54 = load i32, ptr @trackingLimitUsedSlots.timeout_counter, align 4, !tbaa !37
  %55 = add i32 %54, 1
  store i32 %55, ptr @trackingLimitUsedSlots.timeout_counter, align 4, !tbaa !37
  store i32 0, ptr %2, align 4
  br label %56

56:                                               ; preds = %53, %50
  call void @llvm.lifetime.end.p0(i64 480, ptr %4) #10
  call void @llvm.lifetime.end.p0(i64 4, ptr %3) #10
  br label %57

57:                                               ; preds = %56, %19
  call void @llvm.lifetime.end.p0(i64 8, ptr %1) #10
  %58 = load i32, ptr %2, align 4
  switch i32 %58, label %60 [
    i32 0, label %59
    i32 1, label %59
  ]

59:                                               ; preds = %8, %12, %57, %57
  ret void

60:                                               ; preds = %57
  unreachable
}