; Function Attrs: nounwind uwtable
define dso_local void @trackingLimitUsedSlots() local_unnamed_addr #0 {
  %1 = alloca %struct.raxIterator, align 8
  %2 = load ptr, ptr @TrackingTable, align 8, !tbaa !31
  %3 = icmp eq ptr %2, null
  %4 = load i64, ptr getelementptr inbounds nuw (i8, ptr @server, i64 7656), align 8
  %5 = icmp eq i64 %4, 0
  %or.cond = select i1 %3, i1 true, i1 %5
  br i1 %or.cond, label %33, label %6

6:                                                ; preds = %0
  %7 = tail call i64 @raxSize(ptr noundef nonnull %2) #9
  %.not = icmp ugt i64 %7, %4
  br i1 %.not, label %9, label %8

8:                                                ; preds = %6
  store i32 0, ptr @trackingLimitUsedSlots.timeout_counter, align 4, !tbaa !70
  br label %33

9:                                                ; preds = %6
  %10 = load i32, ptr @trackingLimitUsedSlots.timeout_counter, align 4, !tbaa !70
  %11 = mul i32 %10, 100
  %12 = add i32 %11, 100
  call void @llvm.lifetime.start.p0(i64 480, ptr nonnull %1) #9
  %13 = load ptr, ptr @TrackingTable, align 8, !tbaa !31
  call void @raxStart(ptr noundef nonnull %1, ptr noundef %13) #9
  %14 = getelementptr inbounds nuw i8, ptr %1, i64 16
  %15 = getelementptr inbounds nuw i8, ptr %1, i64 32
  br label %.critedge

.critedge:                                        ; preds = %21, %9
  %.07 = phi i32 [ %12, %9 ], [ %22, %21 ]
  %16 = icmp sgt i32 %.07, 0
  br i1 %16, label %17, label %29

17:                                               ; preds = %.critedge
  %18 = call i32 @raxSeek(ptr noundef nonnull %1, ptr noundef nonnull @.str, ptr noundef null, i64 noundef 0) #9
  %19 = call i32 @raxRandomWalk(ptr noundef nonnull %1, i64 noundef 0) #9
  %20 = call i32 @raxEOF(ptr noundef nonnull %1) #9
  %.not10 = icmp eq i32 %20, 0
  br i1 %.not10, label %21, label %29

21:                                               ; preds = %17
  %22 = add nsw i32 %.07, -1
  %23 = load ptr, ptr %14, align 8, !tbaa !32
  %24 = load i64, ptr %15, align 8, !tbaa !36
  %25 = call ptr @createStringObject(ptr noundef %23, i64 noundef %24) #9
  call void @trackingInvalidateKey(ptr noundef null, ptr noundef %25, i32 noundef 0)
  call void @decrRefCount(ptr noundef %25) #9
  %26 = load ptr, ptr @TrackingTable, align 8, !tbaa !31
  %27 = call i64 @raxSize(ptr noundef %26) #9
  %.not11 = icmp ugt i64 %27, %4
  br i1 %.not11, label %.critedge, label %28

28:                                               ; preds = %21
  store i32 0, ptr @trackingLimitUsedSlots.timeout_counter, align 4, !tbaa !70
  call void @raxStop(ptr noundef nonnull %1) #9
  br label %32, !llvm.loop !111

29:                                               ; preds = %17, %.critedge
  call void @raxStop(ptr noundef nonnull %1) #9
  %30 = load i32, ptr @trackingLimitUsedSlots.timeout_counter, align 4, !tbaa !70
  %31 = add i32 %30, 1
  store i32 %31, ptr @trackingLimitUsedSlots.timeout_counter, align 4, !tbaa !70
  br label %32

32:                                               ; preds = %28, %29
  call void @llvm.lifetime.end.p0(i64 480, ptr nonnull %1) #9
  br label %33

33:                                               ; preds = %8, %32, %0
  ret void
}